target datalayout = "e-m:e-p270:32:32-p271:32:32-p272:64:64-i64:64-i128:128-f80:128-n8:16:32:64-S128"
target triple = "x86_64-pc-linux-gnu"

%struct.formnode = type { i16, i16, i16, i32, i32, i32, i32, i16, i16, i16, i32, ptr, ptr, ptr, ptr, ptr, ptr, ptr, ptr, ptr, ptr, ptr }
%struct.fieldnode = type { i16, i16, i16, i16, i16, i32, i32, i32, i32, i16, i16, i16, i16, i32, i32, i32, i32, ptr, ptr, ptr, ptr, ptr, ptr, ptr, ptr }

; Function Attrs: nounwind uwtable
define internal i32 @IFN_Right_Character(ptr noundef %0) #0 {
  %2 = alloca i32, align 4
  %3 = alloca ptr, align 8
  %4 = alloca ptr, align 8
  %5 = alloca i32, align 4
  store ptr %0, ptr %3, align 8, !tbaa !4
  %6 = load ptr, ptr %3, align 8, !tbaa !4
  %7 = getelementptr inbounds nuw %struct.formnode, ptr %6, i32 0, i32 4
  %8 = load i32, ptr %7, align 4, !tbaa !22
  %9 = add nsw i32 %8, 1
  store i32 %9, ptr %7, align 4, !tbaa !22
  %10 = load ptr, ptr %3, align 8, !tbaa !4
  %11 = getelementptr inbounds nuw %struct.formnode, ptr %10, i32 0, i32 15
  %12 = load ptr, ptr %11, align 8, !tbaa !16
  %13 = getelementptr inbounds nuw %struct.fieldnode, ptr %12, i32 0, i32 6
  %14 = load i32, ptr %13, align 8, !tbaa !29
  %15 = icmp eq i32 %9, %14
  br i1 %15, label %16, label %39

16:                                               ; preds = %1
  call void @llvm.lifetime.start.p0(i64 8, ptr %4) #9
  %17 = load ptr, ptr %3, align 8, !tbaa !4
  %18 = getelementptr inbounds nuw %struct.formnode, ptr %17, i32 0, i32 15
  %19 = load ptr, ptr %18, align 8, !tbaa !16
  store ptr %19, ptr %4, align 8, !tbaa !17
  %20 = load ptr, ptr %4, align 8, !tbaa !17
  %21 = getelementptr inbounds nuw %struct.fieldnode, ptr %20, i32 0, i32 1
  %22 = load i16, ptr %21, align 2, !tbaa !28
  %23 = sext i16 %22 to i32
  %24 = load ptr, ptr %4, align 8, !tbaa !17
  %25 = getelementptr inbounds nuw %struct.fieldnode, ptr %24, i32 0, i32 8
  %26 = load i32, ptr %25, align 8, !tbaa !36
  %27 = add nsw i32 %23, %26
  %28 = icmp eq i32 %27, 1
  br i1 %28, label %29, label %33

29:                                               ; preds = %16
  %30 = load ptr, ptr %4, align 8, !tbaa !17
  %31 = call zeroext i1 @Field_Grown(ptr noundef %30, i32 noundef 1)
  br i1 %31, label %32, label %33

32:                                               ; preds = %29
  store i32 0, ptr %2, align 4
  store i32 1, ptr %5, align 4
  br label %38

33:                                               ; preds = %29, %16
  %34 = load ptr, ptr %3, align 8, !tbaa !4
  %35 = getelementptr inbounds nuw %struct.formnode, ptr %34, i32 0, i32 4
  %36 = load i32, ptr %35, align 4, !tbaa !22
  %37 = add nsw i32 %36, -1
  store i32 %37, ptr %35, align 4, !tbaa !22
  store i32 -12, ptr %2, align 4
  store i32 1, ptr %5, align 4
  br label %38

38:                                               ; preds = %33, %32
  call void @llvm.lifetime.end.p0(i64 8, ptr %4) #9
  br label %40

39:                                               ; preds = %1
  store i32 0, ptr %2, align 4
  br label %40

40:                                               ; preds = %39, %38
  %41 = load i32, ptr %2, align 4
  ret i32 %41
}