; Function Attrs: nounwind uwtable
define internal range(i32 -12, 1) i32 @IFN_Right_Character(ptr noundef captures(none) %0) #0 {
  %2 = getelementptr inbounds nuw i8, ptr %0, i64 12
  %3 = load i32, ptr %2, align 4, !tbaa !18
  %4 = add nsw i32 %3, 1
  store i32 %4, ptr %2, align 4, !tbaa !18
  %5 = getelementptr inbounds nuw i8, ptr %0, i64 72
  %6 = load ptr, ptr %5, align 8, !tbaa !14
  %7 = getelementptr inbounds nuw i8, ptr %6, i64 16
  %8 = load i32, ptr %7, align 8, !tbaa !26
  %9 = icmp eq i32 %4, %8
  br i1 %9, label %10, label %23

10:                                               ; preds = %1
  %11 = getelementptr inbounds nuw i8, ptr %6, i64 2
  %12 = load i16, ptr %11, align 2, !tbaa !25
  %13 = sext i16 %12 to i32
  %14 = getelementptr inbounds nuw i8, ptr %6, i64 24
  %15 = load i32, ptr %14, align 8, !tbaa !33
  %16 = add nsw i32 %15, %13
  %17 = icmp eq i32 %16, 1
  br i1 %17, label %18, label %21

18:                                               ; preds = %10
  %19 = tail call fastcc zeroext i1 @Field_Grown(ptr noundef nonnull %6, i32 noundef 1)
  br i1 %19, label %23, label %._crit_edge

._crit_edge:                                      ; preds = %18
  %.pre = load i32, ptr %2, align 4, !tbaa !18
  %20 = add nsw i32 %.pre, -1
  br label %21

21:                                               ; preds = %._crit_edge, %10
  %22 = phi i32 [ %20, %._crit_edge ], [ %3, %10 ]
  store i32 %22, ptr %2, align 4, !tbaa !18
  br label %23

23:                                               ; preds = %1, %21, %18
  %.1 = phi i32 [ -12, %21 ], [ 0, %18 ], [ 0, %1 ]
  ret i32 %.1
}